; ModuleID = 'main.4b21619d1e36c66a-cgu.0'
source_filename = "main.4b21619d1e36c66a-cgu.0"
target datalayout = "e-m:e-p270:32:32-p271:32:32-p272:64:64-i64:64-i128:128-f80:128-n8:16:32:64-S128"
target triple = "x86_64-unknown-linux-gnu"

@vtable.0 = private unnamed_addr constant <{ [24 x i8], ptr, ptr, ptr }> <{ [24 x i8] c"\00\00\00\00\00\00\00\00\08\00\00\00\00\00\00\00\08\00\00\00\00\00\00\00", ptr @"_ZN4core3ops8function6FnOnce40call_once$u7b$$u7b$vtable.shim$u7d$$u7d$17h584788f63753f085E", ptr @"_ZN3std2rt10lang_start28_$u7b$$u7b$closure$u7d$$u7d$17h4b1c0efb23d45a98E", ptr @"_ZN3std2rt10lang_start28_$u7b$$u7b$closure$u7d$$u7d$17h4b1c0efb23d45a98E" }>, align 8

; std::rt::lang_start
; Function Attrs: nonlazybind uwtable
define hidden i64 @_ZN3std2rt10lang_start17h6972b5585ce35debE(ptr %main, i64 %argc, ptr %argv, i8 %sigpipe) unnamed_addr #0 {
start:
  %_8 = alloca [8 x i8], align 8
  %_5 = alloca [8 x i8], align 8
  store ptr %main, ptr %_8, align 8
; call std::rt::lang_start_internal
  %0 = call i64 @_ZN3std2rt19lang_start_internal17h4d90db0530245041E(ptr align 1 %_8, ptr align 8 @vtable.0, i64 %argc, ptr %argv, i8 %sigpipe)
  store i64 %0, ptr %_5, align 8
  %v = load i64, ptr %_5, align 8
  ret i64 %v
}

; std::rt::lang_start::{{closure}}
; Function Attrs: inlinehint nonlazybind uwtable
define internal i32 @"_ZN3std2rt10lang_start28_$u7b$$u7b$closure$u7d$$u7d$17h4b1c0efb23d45a98E"(ptr align 8 %_1) unnamed_addr #1 {
start:
  %self = alloca [1 x i8], align 1
  %_4 = load ptr, ptr %_1, align 8
; call std::sys::backtrace::__rust_begin_short_backtrace
  call void @_ZN3std3sys9backtrace28__rust_begin_short_backtrace17h7d575e7467d20571E(ptr %_4)
; call <() as std::process::Termination>::report
  %0 = call i8 @"_ZN54_$LT$$LP$$RP$$u20$as$u20$std..process..Termination$GT$6report17hd2d0c551264d5c0dE"()
  store i8 %0, ptr %self, align 1
  %_6 = load i8, ptr %self, align 1
  %_0 = zext i8 %_6 to i32
  ret i32 %_0
}

; std::sys::backtrace::__rust_begin_short_backtrace
; Function Attrs: noinline nonlazybind uwtable
define internal void @_ZN3std3sys9backtrace28__rust_begin_short_backtrace17h7d575e7467d20571E(ptr %f) unnamed_addr #2 {
start:
; call core::ops::function::FnOnce::call_once
  call void @_ZN4core3ops8function6FnOnce9call_once17h95975e0761d0dbb8E(ptr %f)
  call void asm sideeffect "", "~{memory}"(), !srcloc !4
  ret void
}

; core::ops::function::FnOnce::call_once{{vtable.shim}}
; Function Attrs: inlinehint nonlazybind uwtable
define internal i32 @"_ZN4core3ops8function6FnOnce40call_once$u7b$$u7b$vtable.shim$u7d$$u7d$17h584788f63753f085E"(ptr %_1) unnamed_addr #1 {
start:
  %_2 = alloca [0 x i8], align 1
  %0 = load ptr, ptr %_1, align 8
; call core::ops::function::FnOnce::call_once
  %_0 = call i32 @_ZN4core3ops8function6FnOnce9call_once17hc0158e9858232b1fE(ptr %0)
  ret i32 %_0
}

; core::ops::function::FnOnce::call_once
; Function Attrs: inlinehint nonlazybind uwtable
define internal void @_ZN4core3ops8function6FnOnce9call_once17h95975e0761d0dbb8E(ptr %_1) unnamed_addr #1 {
start:
  %_2 = alloca [0 x i8], align 1
  call void %_1()
  ret void
}

; core::ops::function::FnOnce::call_once
; Function Attrs: inlinehint nonlazybind uwtable
define internal i32 @_ZN4core3ops8function6FnOnce9call_once17hc0158e9858232b1fE(ptr %0) unnamed_addr #1 personality ptr @rust_eh_personality {
start:
  %1 = alloca [16 x i8], align 8
  %_2 = alloca [0 x i8], align 1
  %_1 = alloca [8 x i8], align 8
  store ptr %0, ptr %_1, align 8
; invoke std::rt::lang_start::{{closure}}
  %_0 = invoke i32 @"_ZN3std2rt10lang_start28_$u7b$$u7b$closure$u7d$$u7d$17h4b1c0efb23d45a98E"(ptr align 8 %_1)
          to label %bb1 unwind label %cleanup

bb3:                                              ; preds = %cleanup
  %2 = load ptr, ptr %1, align 8
  %3 = getelementptr inbounds i8, ptr %1, i64 8
  %4 = load i32, ptr %3, align 8
  %5 = insertvalue { ptr, i32 } poison, ptr %2, 0
  %6 = insertvalue { ptr, i32 } %5, i32 %4, 1
  resume { ptr, i32 } %6

cleanup:                                          ; preds = %start
  %7 = landingpad { ptr, i32 }
          cleanup
  %8 = extractvalue { ptr, i32 } %7, 0
  %9 = extractvalue { ptr, i32 } %7, 1
  store ptr %8, ptr %1, align 8
  %10 = getelementptr inbounds i8, ptr %1, i64 8
  store i32 %9, ptr %10, align 8
  br label %bb3

bb1:                                              ; preds = %start
  ret i32 %_0
}

; core::ptr::drop_in_place<std::rt::lang_start<()>::{{closure}}>
; Function Attrs: inlinehint nonlazybind uwtable
define internal void @"_ZN4core3ptr85drop_in_place$LT$std..rt..lang_start$LT$$LP$$RP$$GT$..$u7b$$u7b$closure$u7d$$u7d$$GT$17h7040f0452d1b6634E"(ptr align 8 %_1) unnamed_addr #1 {
start:
  ret void
}

; <() as std::process::Termination>::report
; Function Attrs: inlinehint nonlazybind uwtable
define internal i8 @"_ZN54_$LT$$LP$$RP$$u20$as$u20$std..process..Termination$GT$6report17hd2d0c551264d5c0dE"() unnamed_addr #1 {
start:
  ret i8 0
}

; main::main
; Function Attrs: nonlazybind uwtable
define internal void @_ZN4main4main17h0cc9ac8d6b33b55fE() unnamed_addr #0 {
start:
  ret void
}

; std::rt::lang_start_internal
; Function Attrs: nonlazybind uwtable
declare i64 @_ZN3std2rt19lang_start_internal17h4d90db0530245041E(ptr align 1, ptr align 8, i64, ptr, i8) unnamed_addr #0

; Function Attrs: nounwind nonlazybind uwtable
declare i32 @rust_eh_personality(i32, i32, i64, ptr, ptr) unnamed_addr #3

; Function Attrs: nonlazybind
define i32 @main(i32 %0, ptr %1) unnamed_addr #4 {
top:
  %2 = sext i32 %0 to i64
; call std::rt::lang_start
  %3 = call i64 @_ZN3std2rt10lang_start17h6972b5585ce35debE(ptr @_ZN4main4main17h0cc9ac8d6b33b55fE, i64 %2, ptr %1, i8 0)
  %4 = trunc i64 %3 to i32
  ret i32 %4
}

attributes #0 = { nonlazybind uwtable "probe-stack"="inline-asm" "target-cpu"="x86-64" }
attributes #1 = { inlinehint nonlazybind uwtable "probe-stack"="inline-asm" "target-cpu"="x86-64" }
attributes #2 = { noinline nonlazybind uwtable "probe-stack"="inline-asm" "target-cpu"="x86-64" }
attributes #3 = { nounwind nonlazybind uwtable "probe-stack"="inline-asm" "target-cpu"="x86-64" }
attributes #4 = { nonlazybind "target-cpu"="x86-64" }

!llvm.module.flags = !{!0, !1, !2}
!llvm.ident = !{!3}

!0 = !{i32 8, !"PIC Level", i32 2}
!1 = !{i32 7, !"PIE Level", i32 2}
!2 = !{i32 2, !"RtLibUseGOT", i32 1}
!3 = !{!"rustc version 1.82.0 (f6e511eec 2024-10-15)"}
!4 = !{i32 1197495}
